target datalayout = "e-m:e-p270:32:32-p271:32:32-p272:64:64-i64:64-i128:128-f80:128-n8:16:32:64-S128"
target triple = "x86_64-pc-linux-gnu"

%struct.pmix_pointer_array_t = type { %struct.pmix_object_t, i32, i32, i32, i32, i32, ptr, ptr }
%struct.pmix_object_t = type { %union.pthread_mutex_t, ptr, i32, %struct.pmix_tma }
%union.pthread_mutex_t = type { %struct.__pthread_mutex_s }
%struct.__pthread_mutex_s = type { i32, i32, i32, i32, i32, i16, i16, %struct.__pthread_internal_list }
%struct.__pthread_internal_list = type { ptr, ptr }
%struct.pmix_tma = type { ptr, ptr, ptr, ptr, ptr, ptr, ptr, ptr }
%struct.pmix_info_component_map_t = type { %struct.pmix_list_item_t, ptr, ptr, ptr }
%struct.pmix_list_item_t = type { %struct.pmix_object_t, ptr, ptr, i32 }

@.str.17 = private unnamed_addr constant [4 x i8] c"all\00", align 1
@pmix_info_component_all = dso_local global ptr @.str.17, align 8
@stderr = external global ptr, align 8
@.str.51 = private unnamed_addr constant [2 x i8] c"*\00", align 1
@pmix_component_map = external global %struct.pmix_pointer_array_t, align 8
@.str.52 = private unnamed_addr constant [37 x i8] c"pmix_info_err_params: map not found\0A\00", align 1
@.str.53 = private unnamed_addr constant [2 x i8] c"\0A\00", align 1

; Function Attrs: nounwind uwtable
define dso_local void @pmix_info_show_mca_params(ptr noundef %0, ptr noundef %1) #0 {
  %3 = alloca ptr, align 8
  %4 = alloca ptr, align 8
  %5 = alloca ptr, align 8
  %6 = alloca i32, align 4
  %7 = alloca i32, align 4
  store ptr %0, ptr %3, align 8, !tbaa !24
  store ptr %1, ptr %4, align 8, !tbaa !24
  call void @llvm.lifetime.start.p0(i64 8, ptr %5) #13
  call void @llvm.lifetime.start.p0(i64 4, ptr %6) #13
  %8 = load ptr, ptr %4, align 8, !tbaa !24
  %9 = call i32 @strcmp(ptr noundef %8, ptr noundef @.str.17) #16
  %10 = icmp eq i32 0, %9
  br i1 %10, label %11, label %21

11:                                               ; preds = %2
  %12 = load ptr, ptr %3, align 8, !tbaa !24
  %13 = call i32 @pmix_mca_base_var_group_find(ptr noundef @.str.51, ptr noundef %12, ptr noundef null)
  store i32 %13, ptr %6, align 4, !tbaa !18
  %14 = load i32, ptr %6, align 4, !tbaa !18
  %15 = icmp sgt i32 0, %14
  br i1 %15, label %16, label %17

16:                                               ; preds = %11
  store i32 1, ptr %7, align 4
  br label %33

17:                                               ; preds = %11
  %18 = load i32, ptr %6, align 4, !tbaa !18
  %19 = call i32 @pmix_mca_base_var_group_get(i32 noundef %18, ptr noundef %5)
  %20 = load ptr, ptr %5, align 8, !tbaa !99
  call void @pmix_info_show_mca_group_params(ptr noundef %20)
  br label %32

21:                                               ; preds = %2
  %22 = load ptr, ptr %3, align 8, !tbaa !24
  %23 = load ptr, ptr %4, align 8, !tbaa !24
  %24 = call i32 @pmix_mca_base_var_group_find(ptr noundef @.str.51, ptr noundef %22, ptr noundef %23)
  store i32 %24, ptr %6, align 4, !tbaa !18
  %25 = load i32, ptr %6, align 4, !tbaa !18
  %26 = icmp sgt i32 0, %25
  br i1 %26, label %27, label %28

27:                                               ; preds = %21
  store i32 1, ptr %7, align 4
  br label %33

28:                                               ; preds = %21
  %29 = load i32, ptr %6, align 4, !tbaa !18
  %30 = call i32 @pmix_mca_base_var_group_get(i32 noundef %29, ptr noundef %5)
  %31 = load ptr, ptr %5, align 8, !tbaa !99
  call void @pmix_info_show_mca_group_params(ptr noundef %31)
  br label %32

32:                                               ; preds = %28, %17
  store i32 0, ptr %7, align 4
  br label %33

33:                                               ; preds = %32, %27, %16
  call void @llvm.lifetime.end.p0(i64 4, ptr %6) #13
  call void @llvm.lifetime.end.p0(i64 8, ptr %5) #13
  %34 = load i32, ptr %7, align 4
  switch i32 %34, label %36 [
    i32 0, label %35
    i32 1, label %35
  ]

35:                                               ; preds = %33, %33
  ret void

36:                                               ; preds = %33
  unreachable
}

; Function Attrs: inlinehint nounwind uwtable
define internal ptr @pmix_pointer_array_get_item(ptr noundef %0, i32 noundef %1) #4 {
  %3 = alloca ptr, align 8
  %4 = alloca ptr, align 8
  %5 = alloca i32, align 4
  %6 = alloca ptr, align 8
  %7 = alloca i32, align 4
  store ptr %0, ptr %4, align 8, !tbaa !96
  store i32 %1, ptr %5, align 4, !tbaa !18
  call void @llvm.lifetime.start.p0(i64 8, ptr %6) #13
  %8 = load i32, ptr %5, align 4, !tbaa !18
  %9 = icmp sgt i32 0, %8
  br i1 %9, label %16, label %10

10:                                               ; preds = %2
  %11 = load ptr, ptr %4, align 8, !tbaa !96
  %12 = getelementptr inbounds nuw %struct.pmix_pointer_array_t, ptr %11, i32 0, i32 3
  %13 = load i32, ptr %12, align 8, !tbaa !90
  %14 = load i32, ptr %5, align 4, !tbaa !18
  %15 = icmp sle i32 %13, %14
  br label %16

16:                                               ; preds = %10, %2
  %17 = phi i1 [ true, %2 ], [ %15, %10 ]
  %18 = xor i1 %17, true
  %19 = xor i1 %18, true
  %20 = zext i1 %19 to i32
  %21 = sext i32 %20 to i64
  %22 = call i64 @llvm.expect.i64(i64 %21, i64 0)
  %23 = icmp ne i64 %22, 0
  br i1 %23, label %24, label %25

24:                                               ; preds = %16
  store ptr null, ptr %3, align 8
  store i32 1, ptr %7, align 4
  br label %34

25:                                               ; preds = %16
  %26 = load ptr, ptr %4, align 8, !tbaa !96
  %27 = getelementptr inbounds nuw %struct.pmix_pointer_array_t, ptr %26, i32 0, i32 7
  %28 = load ptr, ptr %27, align 8, !tbaa !98
  %29 = load i32, ptr %5, align 4, !tbaa !18
  %30 = sext i32 %29 to i64
  %31 = getelementptr inbounds ptr, ptr %28, i64 %30
  %32 = load ptr, ptr %31, align 8, !tbaa !4
  store ptr %32, ptr %6, align 8, !tbaa !4
  %33 = load ptr, ptr %6, align 8, !tbaa !4
  store ptr %33, ptr %3, align 8
  store i32 1, ptr %7, align 4
  br label %34

34:                                               ; preds = %25, %24
  call void @llvm.lifetime.end.p0(i64 8, ptr %6) #13
  %35 = load ptr, ptr %3, align 8
  ret ptr %35
}

; Function Attrs: nounwind uwtable
define dso_local void @pmix_info_err_params() #0 {
  %1 = alloca ptr, align 8
  %2 = alloca ptr, align 8
  %3 = alloca i32, align 4
  %4 = alloca i32, align 4
  call void @llvm.lifetime.start.p0(i64 8, ptr %1) #13
  store ptr null, ptr %1, align 8, !tbaa !4
  call void @llvm.lifetime.start.p0(i64 8, ptr %2) #13
  call void @llvm.lifetime.start.p0(i64 4, ptr %3) #13
  store i32 0, ptr %3, align 4, !tbaa !18
  br label %5

5:                                                ; preds = %16, %0
  %6 = load i32, ptr %3, align 4, !tbaa !18
  %7 = load i32, ptr getelementptr inbounds nuw (%struct.pmix_pointer_array_t, ptr @pmix_component_map, i32 0, i32 3), align 8, !tbaa !90
  %8 = icmp slt i32 %6, %7
  br i1 %8, label %9, label %19

9:                                                ; preds = %5
  %10 = load i32, ptr %3, align 4, !tbaa !18
  %11 = call ptr @pmix_pointer_array_get_item(ptr noundef @pmix_component_map, i32 noundef %10)
  store ptr %11, ptr %2, align 8, !tbaa !4
  %12 = icmp eq ptr null, %11
  br i1 %12, label %13, label %14

13:                                               ; preds = %9
  br label %16

14:                                               ; preds = %9
  %15 = load ptr, ptr %2, align 8, !tbaa !4
  store ptr %15, ptr %1, align 8, !tbaa !4
  br label %16

16:                                               ; preds = %14, %13
  %17 = load i32, ptr %3, align 4, !tbaa !18
  %18 = add nsw i32 %17, 1
  store i32 %18, ptr %3, align 4, !tbaa !18
  br label %5, !llvm.loop !101

19:                                               ; preds = %5
  %20 = load ptr, ptr %1, align 8, !tbaa !4
  %21 = icmp eq ptr null, %20
  br i1 %21, label %22, label %25

22:                                               ; preds = %19
  %23 = load ptr, ptr @stderr, align 8, !tbaa !25
  %24 = call i32 (ptr, ptr, ...) @fprintf(ptr noundef %23, ptr noundef @.str.52) #13
  store i32 1, ptr %4, align 4
  br label %32

25:                                               ; preds = %19
  %26 = load ptr, ptr %1, align 8, !tbaa !4
  %27 = getelementptr inbounds nuw %struct.pmix_info_component_map_t, ptr %26, i32 0, i32 1
  %28 = load ptr, ptr %27, align 8, !tbaa !8
  %29 = load ptr, ptr @pmix_info_component_all, align 8, !tbaa !24
  call void @pmix_info_show_mca_params(ptr noundef %28, ptr noundef %29)
  %30 = load ptr, ptr @stderr, align 8, !tbaa !25
  %31 = call i32 (ptr, ptr, ...) @fprintf(ptr noundef %30, ptr noundef @.str.53) #13
  store i32 1, ptr %4, align 4
  br label %32

32:                                               ; preds = %25, %22
  call void @llvm.lifetime.end.p0(i64 4, ptr %3) #13
  call void @llvm.lifetime.end.p0(i64 8, ptr %2) #13
  call void @llvm.lifetime.end.p0(i64 8, ptr %1) #13
  ret void
}