; Function Attrs: nounwind uwtable
define dso_local void @pmix_info_err_params() local_unnamed_addr #2 {
  %1 = alloca ptr, align 8
  %2 = load i32, ptr getelementptr inbounds nuw (i8, ptr @pmix_component_map, i64 128), align 8, !tbaa !84
  %3 = icmp sgt i32 %2, 0
  br i1 %3, label %pmix_pointer_array_get_item.exit.lr.ph, label %._crit_edge.thread

pmix_pointer_array_get_item.exit.lr.ph:           ; preds = %0
  %pmix_component_map.val7 = load ptr, ptr getelementptr inbounds nuw (i8, ptr @pmix_component_map, i64 152), align 8
  %wide.trip.count = zext nneg i32 %2 to i64
  br label %pmix_pointer_array_get_item.exit

pmix_pointer_array_get_item.exit:                 ; preds = %pmix_pointer_array_get_item.exit.lr.ph, %pmix_pointer_array_get_item.exit
  %indvars.iv = phi i64 [ 0, %pmix_pointer_array_get_item.exit.lr.ph ], [ %indvars.iv.next, %pmix_pointer_array_get_item.exit ]
  %.058 = phi ptr [ null, %pmix_pointer_array_get_item.exit.lr.ph ], [ %spec.select, %pmix_pointer_array_get_item.exit ]
  %4 = getelementptr inbounds nuw ptr, ptr %pmix_component_map.val7, i64 %indvars.iv
  %5 = load ptr, ptr %4, align 8, !tbaa !17
  %6 = icmp eq ptr %5, null
  %spec.select = select i1 %6, ptr %.058, ptr %5
  %indvars.iv.next = add nuw nsw i64 %indvars.iv, 1
  %exitcond.not = icmp eq i64 %indvars.iv.next, %wide.trip.count
  br i1 %exitcond.not, label %._crit_edge, label %pmix_pointer_array_get_item.exit, !llvm.loop !92

._crit_edge:                                      ; preds = %pmix_pointer_array_get_item.exit
  %7 = icmp eq ptr %spec.select, null
  br i1 %7, label %._crit_edge.thread, label %10

._crit_edge.thread:                               ; preds = %0, %._crit_edge
  %8 = load ptr, ptr @stderr, align 8, !tbaa !27
  %9 = tail call i64 @fwrite(ptr nonnull @.str.52, i64 36, i64 1, ptr %8) #19
  br label %25

10:                                               ; preds = %._crit_edge
  %11 = getelementptr inbounds nuw i8, ptr %spec.select, i64 144
  %12 = load ptr, ptr %11, align 8, !tbaa !4
  %13 = load ptr, ptr @pmix_info_component_all, align 8, !tbaa !29
  call void @llvm.lifetime.start.p0(i64 8, ptr nonnull %1) #17
  %14 = tail call i32 @strcmp(ptr noundef nonnull dereferenceable(1) %13, ptr noundef nonnull dereferenceable(4) @.str.17) #23
  %15 = icmp eq i32 %14, 0
  br i1 %15, label %16, label %19

16:                                               ; preds = %10
  %17 = tail call i32 @pmix_mca_base_var_group_find(ptr noundef nonnull @.str.51, ptr noundef %12, ptr noundef null) #17
  %18 = icmp slt i32 %17, 0
  br i1 %18, label %pmix_info_show_mca_params.exit, label %.sink.split.i

19:                                               ; preds = %10
  %20 = tail call i32 @pmix_mca_base_var_group_find(ptr noundef nonnull @.str.51, ptr noundef %12, ptr noundef nonnull %13) #17
  %21 = icmp slt i32 %20, 0
  br i1 %21, label %pmix_info_show_mca_params.exit, label %.sink.split.i

.sink.split.i:                                    ; preds = %19, %16
  %.sink.i = phi i32 [ %17, %16 ], [ %20, %19 ]
  %22 = call i32 @pmix_mca_base_var_group_get(i32 noundef %.sink.i, ptr noundef nonnull %1) #17
  %23 = load ptr, ptr %1, align 8, !tbaa !87
  call fastcc void @pmix_info_show_mca_group_params(ptr noundef %23)
  br label %pmix_info_show_mca_params.exit

pmix_info_show_mca_params.exit:                   ; preds = %16, %19, %.sink.split.i
  call void @llvm.lifetime.end.p0(i64 8, ptr nonnull %1) #17
  %24 = load ptr, ptr @stderr, align 8, !tbaa !27
  %fputc = call i32 @fputc(i32 10, ptr %24)
  br label %25

25:                                               ; preds = %pmix_info_show_mca_params.exit, %._crit_edge.thread
  ret void
}